target datalayout = "e-m:e-p270:32:32-p271:32:32-p272:64:64-i64:64-i128:128-f80:128-n8:16:32:64-S128"
target triple = "x86_64-pc-linux-gnu"

%struct.Tuplestorestate = type { i32, i32, i8, i8, i8, i8, i64, i64, i64, i64, ptr, ptr, ptr, ptr, ptr, ptr, ptr, i32, i32, i32, i8, ptr, i32, i32, i32, i32, i64 }

; Function Attrs: nounwind uwtable
define dso_local void @tuplestore_end(ptr noundef %0) #0 {
  %2 = alloca ptr, align 8
  store ptr %0, ptr %2, align 8
  %3 = load ptr, ptr %2, align 8
  %4 = getelementptr inbounds nuw %struct.Tuplestorestate, ptr %3, i32 0, i32 10
  %5 = load ptr, ptr %4, align 8
  %6 = icmp ne ptr %5, null
  br i1 %6, label %7, label %11

7:                                                ; preds = %1
  %8 = load ptr, ptr %2, align 8
  %9 = getelementptr inbounds nuw %struct.Tuplestorestate, ptr %8, i32 0, i32 10
  %10 = load ptr, ptr %9, align 8
  call void @BufFileClose(ptr noundef %10)
  br label %11

11:                                               ; preds = %7, %1
  %12 = load ptr, ptr %2, align 8
  %13 = getelementptr inbounds nuw %struct.Tuplestorestate, ptr %12, i32 0, i32 11
  %14 = load ptr, ptr %13, align 8
  call void @MemoryContextDelete(ptr noundef %14)
  %15 = load ptr, ptr %2, align 8
  %16 = getelementptr inbounds nuw %struct.Tuplestorestate, ptr %15, i32 0, i32 16
  %17 = load ptr, ptr %16, align 8
  call void @pfree(ptr noundef %17)
  %18 = load ptr, ptr %2, align 8
  %19 = getelementptr inbounds nuw %struct.Tuplestorestate, ptr %18, i32 0, i32 21
  %20 = load ptr, ptr %19, align 8
  call void @pfree(ptr noundef %20)
  %21 = load ptr, ptr %2, align 8
  call void @pfree(ptr noundef %21)
  ret void
}