; Function Attrs: nounwind uwtable
define dso_local void @tuplestore_end(ptr noundef %0) local_unnamed_addr #0 {
  %2 = getelementptr inbounds nuw i8, ptr %0, i64 48
  %3 = load ptr, ptr %2, align 8
  %.not = icmp eq ptr %3, null
  br i1 %.not, label %5, label %4

4:                                                ; preds = %1
  tail call void @BufFileClose(ptr noundef nonnull %3) #9
  br label %5

5:                                                ; preds = %4, %1
  %6 = getelementptr inbounds nuw i8, ptr %0, i64 56
  %7 = load ptr, ptr %6, align 8
  tail call void @MemoryContextDelete(ptr noundef %7) #9
  %8 = getelementptr inbounds nuw i8, ptr %0, i64 96
  %9 = load ptr, ptr %8, align 8
  tail call void @pfree(ptr noundef %9) #9
  %10 = getelementptr inbounds nuw i8, ptr %0, i64 120
  %11 = load ptr, ptr %10, align 8
  tail call void @pfree(ptr noundef %11) #9
  tail call void @pfree(ptr noundef nonnull %0) #9
  ret void
}